; ModuleID = '40/2972.c'
source_filename = "40/2972.c"
target datalayout = "e-m:e-p270:32:32-p271:32:32-p272:64:64-i64:64-f80:128-n8:16:32:64-S128"
target triple = "x86_64-pc-linux-gnu"

@.str = private unnamed_addr constant [16 x i8] c"%lf%lf%lf%lf%lf\00", align 1
@.str.1 = private unnamed_addr constant [14 x i8] c"Invalid input\00", align 1
@.str.2 = private unnamed_addr constant [7 x i8] c"%0.4lf\00", align 1

; Function Attrs: noinline nounwind uwtable
define dso_local i32 @main() #0 {
  %1 = alloca i32, align 4
  %2 = alloca double, align 8
  %3 = alloca double, align 8
  %4 = alloca double, align 8
  %5 = alloca double, align 8
  %6 = alloca double, align 8
  %7 = alloca double, align 8
  store i32 0, i32* %1, align 4
  %8 = call i32 (i8*, ...) @__isoc99_scanf(i8* getelementptr inbounds ([16 x i8], [16 x i8]* @.str, i64 0, i64 0), double* %2, double* %3, double* %4, double* %5, double* %6)
  %9 = load double, double* %6, align 8
  %10 = fmul double 0x400921FB4D12D84A, %9
  %11 = fdiv double %10, 1.800000e+02
  %12 = fdiv double %11, 2.000000e+00
  store double %12, double* %6, align 8
  %13 = load double, double* %2, align 8
  %14 = load double, double* %3, align 8
  %15 = fadd double %13, %14
  %16 = load double, double* %4, align 8
  %17 = fadd double %15, %16
  %18 = load double, double* %5, align 8
  %19 = fadd double %17, %18
  %20 = fmul double 5.000000e-01, %19
  store double %20, double* %7, align 8
  %21 = load double, double* %7, align 8
  %22 = load double, double* %2, align 8
  %23 = fsub double %21, %22
  %24 = load double, double* %7, align 8
  %25 = load double, double* %3, align 8
  %26 = fsub double %24, %25
  %27 = fmul double %23, %26
  %28 = load double, double* %7, align 8
  %29 = load double, double* %4, align 8
  %30 = fsub double %28, %29
  %31 = fmul double %27, %30
  %32 = load double, double* %7, align 8
  %33 = load double, double* %5, align 8
  %34 = fsub double %32, %33
  %35 = fmul double %31, %34
  %36 = load double, double* %2, align 8
  %37 = load double, double* %3, align 8
  %38 = fmul double %36, %37
  %39 = load double, double* %4, align 8
  %40 = fmul double %38, %39
  %41 = load double, double* %5, align 8
  %42 = fmul double %40, %41
  %43 = load double, double* %6, align 8
  %44 = call double @cos(double %43) #3
  %45 = fmul double %42, %44
  %46 = load double, double* %6, align 8
  %47 = call double @cos(double %46) #3
  %48 = fmul double %45, %47
  %49 = fsub double %35, %48
  store double %49, double* %7, align 8
  %50 = load double, double* %7, align 8
  %51 = fcmp olt double %50, 0.000000e+00
  br i1 %51, label %52, label %54

52:                                               ; preds = %0
  %53 = call i32 (i8*, ...) @printf(i8* getelementptr inbounds ([14 x i8], [14 x i8]* @.str.1, i64 0, i64 0))
  br label %58

54:                                               ; preds = %0
  %55 = load double, double* %7, align 8
  %56 = call double @sqrt(double %55) #3
  %57 = call i32 (i8*, ...) @printf(i8* getelementptr inbounds ([7 x i8], [7 x i8]* @.str.2, i64 0, i64 0), double %56)
  br label %58

58:                                               ; preds = %54, %52
  ret i32 0
}

declare dso_local i32 @__isoc99_scanf(i8*, ...) #1

; Function Attrs: nounwind
declare dso_local double @cos(double) #2

declare dso_local i32 @printf(i8*, ...) #1

; Function Attrs: nounwind
declare dso_local double @sqrt(double) #2


!llvm.module.flags = !{!0}
!llvm.ident = !{!1}

!0 = !{i32 1, !"wchar_size", i32 4}
!1 = !{!"clang version 10.0.0-4ubuntu1 "}
